target datalayout = "e-m:e-p270:32:32-p271:32:32-p272:64:64-i64:64-i128:128-f80:128-n8:16:32:64-S128"
target triple = "x86_64-pc-linux-gnu"

%struct.Vec_Int_t_ = type { i32, i32, ptr }

; Function Attrs: inlinehint nounwind uwtable
define internal void @Vec_IntGrow(ptr noundef %0, i32 noundef %1) #2 {
  %3 = alloca ptr, align 8
  %4 = alloca i32, align 4
  store ptr %0, ptr %3, align 8, !tbaa !20
  store i32 %1, ptr %4, align 4, !tbaa !19
  %5 = load ptr, ptr %3, align 8, !tbaa !20
  %6 = getelementptr inbounds nuw %struct.Vec_Int_t_, ptr %5, i32 0, i32 0
  %7 = load i32, ptr %6, align 8, !tbaa !50
  %8 = load i32, ptr %4, align 4, !tbaa !19
  %9 = icmp sge i32 %7, %8
  br i1 %9, label %10, label %11

10:                                               ; preds = %2
  br label %36

11:                                               ; preds = %2
  %12 = load ptr, ptr %3, align 8, !tbaa !20
  %13 = getelementptr inbounds nuw %struct.Vec_Int_t_, ptr %12, i32 0, i32 2
  %14 = load ptr, ptr %13, align 8, !tbaa !43
  %15 = icmp ne ptr %14, null
  br i1 %15, label %16, label %24

16:                                               ; preds = %11
  %17 = load ptr, ptr %3, align 8, !tbaa !20
  %18 = getelementptr inbounds nuw %struct.Vec_Int_t_, ptr %17, i32 0, i32 2
  %19 = load ptr, ptr %18, align 8, !tbaa !43
  %20 = load i32, ptr %4, align 4, !tbaa !19
  %21 = sext i32 %20 to i64
  %22 = mul i64 4, %21
  %23 = call ptr @realloc(ptr noundef %19, i64 noundef %22) #11
  br label %29

24:                                               ; preds = %11
  %25 = load i32, ptr %4, align 4, !tbaa !19
  %26 = sext i32 %25 to i64
  %27 = mul i64 4, %26
  %28 = call noalias ptr @malloc(i64 noundef %27) #10
  br label %29

29:                                               ; preds = %24, %16
  %30 = phi ptr [ %23, %16 ], [ %28, %24 ]
  %31 = load ptr, ptr %3, align 8, !tbaa !20
  %32 = getelementptr inbounds nuw %struct.Vec_Int_t_, ptr %31, i32 0, i32 2
  store ptr %30, ptr %32, align 8, !tbaa !43
  %33 = load i32, ptr %4, align 4, !tbaa !19
  %34 = load ptr, ptr %3, align 8, !tbaa !20
  %35 = getelementptr inbounds nuw %struct.Vec_Int_t_, ptr %34, i32 0, i32 0
  store i32 %33, ptr %35, align 8, !tbaa !50
  br label %36

36:                                               ; preds = %29, %10
  ret void
}

; Function Attrs: inlinehint nounwind uwtable
define internal void @Vec_IntPush(ptr noundef %0, i32 noundef %1) #2 {
  %3 = alloca ptr, align 8
  %4 = alloca i32, align 4
  store ptr %0, ptr %3, align 8, !tbaa !20
  store i32 %1, ptr %4, align 4, !tbaa !19
  %5 = load ptr, ptr %3, align 8, !tbaa !20
  %6 = getelementptr inbounds nuw %struct.Vec_Int_t_, ptr %5, i32 0, i32 1
  %7 = load i32, ptr %6, align 4, !tbaa !41
  %8 = load ptr, ptr %3, align 8, !tbaa !20
  %9 = getelementptr inbounds nuw %struct.Vec_Int_t_, ptr %8, i32 0, i32 0
  %10 = load i32, ptr %9, align 8, !tbaa !50
  %11 = icmp eq i32 %7, %10
  br i1 %11, label %12, label %26

12:                                               ; preds = %2
  %13 = load ptr, ptr %3, align 8, !tbaa !20
  %14 = getelementptr inbounds nuw %struct.Vec_Int_t_, ptr %13, i32 0, i32 0
  %15 = load i32, ptr %14, align 8, !tbaa !50
  %16 = icmp slt i32 %15, 16
  br i1 %16, label %17, label %19

17:                                               ; preds = %12
  %18 = load ptr, ptr %3, align 8, !tbaa !20
  call void @Vec_IntGrow(ptr noundef %18, i32 noundef 16)
  br label %25

19:                                               ; preds = %12
  %20 = load ptr, ptr %3, align 8, !tbaa !20
  %21 = load ptr, ptr %3, align 8, !tbaa !20
  %22 = getelementptr inbounds nuw %struct.Vec_Int_t_, ptr %21, i32 0, i32 0
  %23 = load i32, ptr %22, align 8, !tbaa !50
  %24 = mul nsw i32 2, %23
  call void @Vec_IntGrow(ptr noundef %20, i32 noundef %24)
  br label %25

25:                                               ; preds = %19, %17
  br label %26

26:                                               ; preds = %25, %2
  %27 = load i32, ptr %4, align 4, !tbaa !19
  %28 = load ptr, ptr %3, align 8, !tbaa !20
  %29 = getelementptr inbounds nuw %struct.Vec_Int_t_, ptr %28, i32 0, i32 2
  %30 = load ptr, ptr %29, align 8, !tbaa !43
  %31 = load ptr, ptr %3, align 8, !tbaa !20
  %32 = getelementptr inbounds nuw %struct.Vec_Int_t_, ptr %31, i32 0, i32 1
  %33 = load i32, ptr %32, align 4, !tbaa !41
  %34 = add nsw i32 %33, 1
  store i32 %34, ptr %32, align 4, !tbaa !41
  %35 = sext i32 %33 to i64
  %36 = getelementptr inbounds i32, ptr %30, i64 %35
  store i32 %27, ptr %36, align 4, !tbaa !19
  ret void
}

; Function Attrs: inlinehint nounwind uwtable
define internal void @Vec_IntClear(ptr noundef %0) #2 {
  %2 = alloca ptr, align 8
  store ptr %0, ptr %2, align 8, !tbaa !20
  %3 = load ptr, ptr %2, align 8, !tbaa !20
  %4 = getelementptr inbounds nuw %struct.Vec_Int_t_, ptr %3, i32 0, i32 1
  store i32 0, ptr %4, align 4, !tbaa !41
  ret void
}

; Function Attrs: nounwind uwtable
define void @Cnf_SopConvertToVector(ptr noundef %0, i32 noundef %1, ptr noundef %2) #0 {
  %4 = alloca ptr, align 8
  %5 = alloca i32, align 4
  %6 = alloca ptr, align 8
  %7 = alloca [4 x i32], align 16
  %8 = alloca i32, align 4
  %9 = alloca i32, align 4
  %10 = alloca i32, align 4
  %11 = alloca i32, align 4
  store ptr %0, ptr %4, align 8, !tbaa !51
  store i32 %1, ptr %5, align 4, !tbaa !19
  store ptr %2, ptr %6, align 8, !tbaa !20
  call void @llvm.lifetime.start.p0(i64 16, ptr %7) #8
  call void @llvm.lifetime.start.p0(i64 4, ptr %8) #8
  call void @llvm.lifetime.start.p0(i64 4, ptr %9) #8
  call void @llvm.lifetime.start.p0(i64 4, ptr %10) #8
  call void @llvm.lifetime.start.p0(i64 4, ptr %11) #8
  %12 = load ptr, ptr %6, align 8, !tbaa !20
  call void @Vec_IntClear(ptr noundef %12)
  store i32 0, ptr %10, align 4, !tbaa !19
  br label %13

13:                                               ; preds = %72, %3
  %14 = load i32, ptr %10, align 4, !tbaa !19
  %15 = load i32, ptr %5, align 4, !tbaa !19
  %16 = icmp slt i32 %14, %15
  br i1 %16, label %17, label %75

17:                                               ; preds = %13
  %18 = load ptr, ptr %4, align 8, !tbaa !51
  %19 = load i32, ptr %10, align 4, !tbaa !19
  %20 = sext i32 %19 to i64
  %21 = getelementptr inbounds i8, ptr %18, i64 %20
  %22 = load i8, ptr %21, align 1, !tbaa !48
  %23 = sext i8 %22 to i32
  store i32 %23, ptr %8, align 4, !tbaa !19
  store i32 0, ptr %11, align 4, !tbaa !19
  br label %24

24:                                               ; preds = %51, %17
  %25 = load i32, ptr %11, align 4, !tbaa !19
  %26 = icmp slt i32 %25, 4
  br i1 %26, label %27, label %54

27:                                               ; preds = %24
  %28 = load i32, ptr %8, align 4, !tbaa !19
  %29 = srem i32 %28, 3
  %30 = icmp eq i32 %29, 0
  br i1 %30, label %31, label %35

31:                                               ; preds = %27
  %32 = load i32, ptr %11, align 4, !tbaa !19
  %33 = sext i32 %32 to i64
  %34 = getelementptr inbounds [4 x i32], ptr %7, i64 0, i64 %33
  store i32 1, ptr %34, align 4, !tbaa !19
  br label %48

35:                                               ; preds = %27
  %36 = load i32, ptr %8, align 4, !tbaa !19
  %37 = srem i32 %36, 3
  %38 = icmp eq i32 %37, 1
  br i1 %38, label %39, label %43

39:                                               ; preds = %35
  %40 = load i32, ptr %11, align 4, !tbaa !19
  %41 = sext i32 %40 to i64
  %42 = getelementptr inbounds [4 x i32], ptr %7, i64 0, i64 %41
  store i32 2, ptr %42, align 4, !tbaa !19
  br label %47

43:                                               ; preds = %35
  %44 = load i32, ptr %11, align 4, !tbaa !19
  %45 = sext i32 %44 to i64
  %46 = getelementptr inbounds [4 x i32], ptr %7, i64 0, i64 %45
  store i32 0, ptr %46, align 4, !tbaa !19
  br label %47

47:                                               ; preds = %43, %39
  br label %48

48:                                               ; preds = %47, %31
  %49 = load i32, ptr %8, align 4, !tbaa !19
  %50 = sdiv i32 %49, 3
  store i32 %50, ptr %8, align 4, !tbaa !19
  br label %51

51:                                               ; preds = %48
  %52 = load i32, ptr %11, align 4, !tbaa !19
  %53 = add nsw i32 %52, 1
  store i32 %53, ptr %11, align 4, !tbaa !19
  br label %24, !llvm.loop !52

54:                                               ; preds = %24
  store i32 0, ptr %9, align 4, !tbaa !19
  store i32 0, ptr %11, align 4, !tbaa !19
  br label %55

55:                                               ; preds = %66, %54
  %56 = load i32, ptr %11, align 4, !tbaa !19
  %57 = icmp slt i32 %56, 4
  br i1 %57, label %58, label %69

58:                                               ; preds = %55
  %59 = load i32, ptr %9, align 4, !tbaa !19
  %60 = shl i32 %59, 2
  %61 = load i32, ptr %11, align 4, !tbaa !19
  %62 = sext i32 %61 to i64
  %63 = getelementptr inbounds [4 x i32], ptr %7, i64 0, i64 %62
  %64 = load i32, ptr %63, align 4, !tbaa !19
  %65 = or i32 %60, %64
  store i32 %65, ptr %9, align 4, !tbaa !19
  br label %66

66:                                               ; preds = %58
  %67 = load i32, ptr %11, align 4, !tbaa !19
  %68 = add nsw i32 %67, 1
  store i32 %68, ptr %11, align 4, !tbaa !19
  br label %55, !llvm.loop !53

69:                                               ; preds = %55
  %70 = load ptr, ptr %6, align 8, !tbaa !20
  %71 = load i32, ptr %9, align 4, !tbaa !19
  call void @Vec_IntPush(ptr noundef %70, i32 noundef %71)
  br label %72

72:                                               ; preds = %69
  %73 = load i32, ptr %10, align 4, !tbaa !19
  %74 = add nsw i32 %73, 1
  store i32 %74, ptr %10, align 4, !tbaa !19
  br label %13, !llvm.loop !54

75:                                               ; preds = %13
  call void @llvm.lifetime.end.p0(i64 4, ptr %11) #8
  call void @llvm.lifetime.end.p0(i64 4, ptr %10) #8
  call void @llvm.lifetime.end.p0(i64 4, ptr %9) #8
  call void @llvm.lifetime.end.p0(i64 4, ptr %8) #8
  call void @llvm.lifetime.end.p0(i64 16, ptr %7) #8
  ret void
}