; Function Attrs: nounwind uwtable
define void @Cnf_SopConvertToVector(ptr noundef readonly captures(none) %0, i32 noundef %1, ptr noundef captures(none) initializes((4, 8)) %2) local_unnamed_addr #0 {
  %4 = alloca [4 x i32], align 16
  call void @llvm.lifetime.start.p0(i64 16, ptr nonnull %4) #14
  %5 = getelementptr inbounds nuw i8, ptr %2, i64 4
  store i32 0, ptr %5, align 4, !tbaa !30
  %6 = icmp sgt i32 %1, 0
  br i1 %6, label %.lr.ph, label %._crit_edge

.lr.ph:                                           ; preds = %3
  %.phi.trans.insert.i = getelementptr inbounds nuw i8, ptr %2, i64 8
  %wide.trip.count = zext nneg i32 %1 to i64
  br label %7

7:                                                ; preds = %.lr.ph, %Vec_IntPush.exit
  %indvars.iv33 = phi i64 [ 0, %.lr.ph ], [ %indvars.iv.next34, %Vec_IntPush.exit ]
  %8 = getelementptr inbounds nuw i8, ptr %0, i64 %indvars.iv33
  %9 = load i8, ptr %8, align 1, !tbaa !33
  %10 = sext i8 %9 to i32
  br label %11

11:                                               ; preds = %7, %11
  %indvars.iv = phi i64 [ 0, %7 ], [ %indvars.iv.next, %11 ]
  %.02123 = phi i32 [ %10, %7 ], [ %14, %11 ]
  %12 = srem i32 %.02123, 3
  %13 = getelementptr inbounds nuw [4 x i32], ptr %4, i64 0, i64 %indvars.iv
  %switch.selectcmp = icmp eq i32 %12, 1
  %switch.select = select i1 %switch.selectcmp, i32 2, i32 0
  %switch.selectcmp37 = icmp eq i32 %12, 0
  %switch.select38 = select i1 %switch.selectcmp37, i32 1, i32 %switch.select
  store i32 %switch.select38, ptr %13, align 4, !tbaa !35
  %14 = sdiv i32 %.02123, 3
  %indvars.iv.next = add nuw nsw i64 %indvars.iv, 1
  %exitcond.not = icmp eq i64 %indvars.iv.next, 4
  br i1 %exitcond.not, label %.preheader, label %11, !llvm.loop !43

.preheader:                                       ; preds = %11, %.preheader
  %indvars.iv29 = phi i64 [ %indvars.iv.next30, %.preheader ], [ 0, %11 ]
  %.02025 = phi i32 [ %18, %.preheader ], [ 0, %11 ]
  %15 = shl i32 %.02025, 2
  %16 = getelementptr inbounds nuw [4 x i32], ptr %4, i64 0, i64 %indvars.iv29
  %17 = load i32, ptr %16, align 4, !tbaa !35
  %18 = or i32 %17, %15
  %indvars.iv.next30 = add nuw nsw i64 %indvars.iv29, 1
  %exitcond32.not = icmp eq i64 %indvars.iv.next30, 4
  br i1 %exitcond32.not, label %19, label %.preheader, !llvm.loop !44

19:                                               ; preds = %.preheader
  %20 = load i32, ptr %5, align 4, !tbaa !30
  %21 = load i32, ptr %2, align 8, !tbaa !27
  %22 = icmp eq i32 %20, %21
  br i1 %22, label %23, label %.Vec_IntGrow.exit10_crit_edge.i

.Vec_IntGrow.exit10_crit_edge.i:                  ; preds = %19
  %.pre.i = load ptr, ptr %.phi.trans.insert.i, align 8, !tbaa !29
  br label %Vec_IntPush.exit

23:                                               ; preds = %19
  %24 = icmp slt i32 %20, 16
  br i1 %24, label %25, label %32

25:                                               ; preds = %23
  %26 = load ptr, ptr %.phi.trans.insert.i, align 8, !tbaa !29
  %.not9.i.i = icmp eq ptr %26, null
  br i1 %.not9.i.i, label %29, label %27

27:                                               ; preds = %25
  %28 = tail call dereferenceable_or_null(64) ptr @realloc(ptr noundef nonnull %26, i64 noundef 64) #13
  br label %Vec_IntGrow.exit.i

29:                                               ; preds = %25
  %30 = tail call noalias dereferenceable_or_null(64) ptr @malloc(i64 noundef 64) #12
  br label %Vec_IntGrow.exit.i

Vec_IntGrow.exit.i:                               ; preds = %29, %27
  %31 = phi ptr [ %28, %27 ], [ %30, %29 ]
  store ptr %31, ptr %.phi.trans.insert.i, align 8, !tbaa !29
  store i32 16, ptr %2, align 8, !tbaa !27
  br label %Vec_IntPush.exit

32:                                               ; preds = %23
  %33 = shl nuw nsw i32 %20, 1
  %34 = load ptr, ptr %.phi.trans.insert.i, align 8, !tbaa !29
  %.not9.i9.i = icmp eq ptr %34, null
  %35 = zext nneg i32 %33 to i64
  %36 = shl nuw nsw i64 %35, 2
  br i1 %.not9.i9.i, label %39, label %37

37:                                               ; preds = %32
  %38 = tail call ptr @realloc(ptr noundef nonnull %34, i64 noundef %36) #13
  br label %41

39:                                               ; preds = %32
  %40 = tail call noalias ptr @malloc(i64 noundef %36) #12
  br label %41

41:                                               ; preds = %39, %37
  %42 = phi ptr [ %38, %37 ], [ %40, %39 ]
  store ptr %42, ptr %.phi.trans.insert.i, align 8, !tbaa !29
  store i32 %33, ptr %2, align 8, !tbaa !27
  br label %Vec_IntPush.exit

Vec_IntPush.exit:                                 ; preds = %.Vec_IntGrow.exit10_crit_edge.i, %Vec_IntGrow.exit.i, %41
  %43 = phi ptr [ %.pre.i, %.Vec_IntGrow.exit10_crit_edge.i ], [ %42, %41 ], [ %31, %Vec_IntGrow.exit.i ]
  %44 = load i32, ptr %5, align 4, !tbaa !30
  %45 = add nsw i32 %44, 1
  store i32 %45, ptr %5, align 4, !tbaa !30
  %46 = sext i32 %44 to i64
  %47 = getelementptr inbounds i32, ptr %43, i64 %46
  store i32 %18, ptr %47, align 4, !tbaa !35
  %indvars.iv.next34 = add nuw nsw i64 %indvars.iv33, 1
  %exitcond36.not = icmp eq i64 %indvars.iv.next34, %wide.trip.count
  br i1 %exitcond36.not, label %._crit_edge, label %7, !llvm.loop !45

._crit_edge:                                      ; preds = %Vec_IntPush.exit, %3
  call void @llvm.lifetime.end.p0(i64 16, ptr nonnull %4) #14
  ret void
}